target datalayout = "e-m:e-p270:32:32-p271:32:32-p272:64:64-i64:64-i128:128-f80:128-n8:16:32:64-S128"
target triple = "x86_64-pc-linux-gnu"

%struct.FLAC__StreamMetadata = type { i32, i32, i32, %union.anon }
%union.anon = type { %struct.FLAC__StreamMetadata_CueSheet }
%struct.FLAC__StreamMetadata_CueSheet = type { [129 x i8], i64, i32, i32, ptr }
%struct.FLAC__StreamMetadata_CueSheet_Track = type { i64, i8, [13 x i8], i8, i8, ptr }

@FLAC__STREAM_METADATA_CUESHEET_MEDIA_CATALOG_NUMBER_LEN = external constant i32, align 4
@FLAC__STREAM_METADATA_CUESHEET_LEAD_IN_LEN = external constant i32, align 4
@FLAC__STREAM_METADATA_CUESHEET_IS_CD_LEN = external constant i32, align 4
@FLAC__STREAM_METADATA_CUESHEET_RESERVED_LEN = external constant i32, align 4
@FLAC__STREAM_METADATA_CUESHEET_NUM_TRACKS_LEN = external constant i32, align 4
@FLAC__STREAM_METADATA_CUESHEET_TRACK_OFFSET_LEN = external constant i32, align 4
@FLAC__STREAM_METADATA_CUESHEET_TRACK_NUMBER_LEN = external constant i32, align 4
@FLAC__STREAM_METADATA_CUESHEET_TRACK_ISRC_LEN = external constant i32, align 4
@FLAC__STREAM_METADATA_CUESHEET_TRACK_TYPE_LEN = external constant i32, align 4
@FLAC__STREAM_METADATA_CUESHEET_TRACK_PRE_EMPHASIS_LEN = external constant i32, align 4
@FLAC__STREAM_METADATA_CUESHEET_TRACK_RESERVED_LEN = external constant i32, align 4
@FLAC__STREAM_METADATA_CUESHEET_TRACK_NUM_INDICES_LEN = external constant i32, align 4
@FLAC__STREAM_METADATA_CUESHEET_INDEX_OFFSET_LEN = external constant i32, align 4
@FLAC__STREAM_METADATA_CUESHEET_INDEX_NUMBER_LEN = external constant i32, align 4
@FLAC__STREAM_METADATA_CUESHEET_INDEX_RESERVED_LEN = external constant i32, align 4

; Function Attrs: alwaysinline nounwind
define internal ptr @memcpy.inline(ptr noalias nonnull %0, ptr noalias nonnull %1, i64 %2) #5 {
  %4 = alloca ptr, align 8
  %5 = alloca ptr, align 8
  %6 = alloca i64, align 8
  store ptr %0, ptr %4, align 8, !tbaa !27
  store ptr %1, ptr %5, align 8, !tbaa !27
  store i64 %2, ptr %6, align 8, !tbaa !28
  %7 = load ptr, ptr %4, align 8, !tbaa !27
  %8 = load ptr, ptr %5, align 8, !tbaa !27
  %9 = load i64, ptr %6, align 8, !tbaa !28
  %10 = load ptr, ptr %4, align 8, !tbaa !27
  %11 = call i64 @llvm.objectsize.i64.p0(ptr %10, i1 false, i1 true, i1 false)
  %12 = call ptr @__memcpy_chk(ptr noundef %7, ptr noundef %8, i64 noundef %9, i64 noundef %11) #12
  ret ptr %12
}

; Function Attrs: nounwind sspstrong uwtable
define internal void @cuesheet_calculate_length_(ptr noundef %0) #0 {
  %2 = alloca ptr, align 8
  %3 = alloca i32, align 4
  store ptr %0, ptr %2, align 8, !tbaa !7
  call void @llvm.lifetime.start.p0(i64 4, ptr %3) #12
  %4 = load i32, ptr @FLAC__STREAM_METADATA_CUESHEET_MEDIA_CATALOG_NUMBER_LEN, align 4, !tbaa !3
  %5 = load i32, ptr @FLAC__STREAM_METADATA_CUESHEET_LEAD_IN_LEN, align 4, !tbaa !3
  %6 = add i32 %4, %5
  %7 = load i32, ptr @FLAC__STREAM_METADATA_CUESHEET_IS_CD_LEN, align 4, !tbaa !3
  %8 = add i32 %6, %7
  %9 = load i32, ptr @FLAC__STREAM_METADATA_CUESHEET_RESERVED_LEN, align 4, !tbaa !3
  %10 = add i32 %8, %9
  %11 = load i32, ptr @FLAC__STREAM_METADATA_CUESHEET_NUM_TRACKS_LEN, align 4, !tbaa !3
  %12 = add i32 %10, %11
  %13 = udiv i32 %12, 8
  %14 = load ptr, ptr %2, align 8, !tbaa !7
  %15 = getelementptr inbounds nuw %struct.FLAC__StreamMetadata, ptr %14, i32 0, i32 2
  store i32 %13, ptr %15, align 8, !tbaa !13
  %16 = load ptr, ptr %2, align 8, !tbaa !7
  %17 = getelementptr inbounds nuw %struct.FLAC__StreamMetadata, ptr %16, i32 0, i32 3
  %18 = getelementptr inbounds nuw %struct.FLAC__StreamMetadata_CueSheet, ptr %17, i32 0, i32 3
  %19 = load i32, ptr %18, align 4, !tbaa !16
  %20 = load i32, ptr @FLAC__STREAM_METADATA_CUESHEET_TRACK_OFFSET_LEN, align 4, !tbaa !3
  %21 = load i32, ptr @FLAC__STREAM_METADATA_CUESHEET_TRACK_NUMBER_LEN, align 4, !tbaa !3
  %22 = add i32 %20, %21
  %23 = load i32, ptr @FLAC__STREAM_METADATA_CUESHEET_TRACK_ISRC_LEN, align 4, !tbaa !3
  %24 = add i32 %22, %23
  %25 = load i32, ptr @FLAC__STREAM_METADATA_CUESHEET_TRACK_TYPE_LEN, align 4, !tbaa !3
  %26 = add i32 %24, %25
  %27 = load i32, ptr @FLAC__STREAM_METADATA_CUESHEET_TRACK_PRE_EMPHASIS_LEN, align 4, !tbaa !3
  %28 = add i32 %26, %27
  %29 = load i32, ptr @FLAC__STREAM_METADATA_CUESHEET_TRACK_RESERVED_LEN, align 4, !tbaa !3
  %30 = add i32 %28, %29
  %31 = load i32, ptr @FLAC__STREAM_METADATA_CUESHEET_TRACK_NUM_INDICES_LEN, align 4, !tbaa !3
  %32 = add i32 %30, %31
  %33 = mul i32 %19, %32
  %34 = udiv i32 %33, 8
  %35 = load ptr, ptr %2, align 8, !tbaa !7
  %36 = getelementptr inbounds nuw %struct.FLAC__StreamMetadata, ptr %35, i32 0, i32 2
  %37 = load i32, ptr %36, align 8, !tbaa !13
  %38 = add i32 %37, %34
  store i32 %38, ptr %36, align 8, !tbaa !13
  store i32 0, ptr %3, align 4, !tbaa !3
  br label %39

39:                                               ; preds = %68, %1
  %40 = load i32, ptr %3, align 4, !tbaa !3
  %41 = load ptr, ptr %2, align 8, !tbaa !7
  %42 = getelementptr inbounds nuw %struct.FLAC__StreamMetadata, ptr %41, i32 0, i32 3
  %43 = getelementptr inbounds nuw %struct.FLAC__StreamMetadata_CueSheet, ptr %42, i32 0, i32 3
  %44 = load i32, ptr %43, align 4, !tbaa !16
  %45 = icmp ult i32 %40, %44
  br i1 %45, label %46, label %71

46:                                               ; preds = %39
  %47 = load ptr, ptr %2, align 8, !tbaa !7
  %48 = getelementptr inbounds nuw %struct.FLAC__StreamMetadata, ptr %47, i32 0, i32 3
  %49 = getelementptr inbounds nuw %struct.FLAC__StreamMetadata_CueSheet, ptr %48, i32 0, i32 4
  %50 = load ptr, ptr %49, align 8, !tbaa !16
  %51 = load i32, ptr %3, align 4, !tbaa !3
  %52 = zext i32 %51 to i64
  %53 = getelementptr inbounds nuw %struct.FLAC__StreamMetadata_CueSheet_Track, ptr %50, i64 %52
  %54 = getelementptr inbounds nuw %struct.FLAC__StreamMetadata_CueSheet_Track, ptr %53, i32 0, i32 4
  %55 = load i8, ptr %54, align 1, !tbaa !23
  %56 = zext i8 %55 to i32
  %57 = load i32, ptr @FLAC__STREAM_METADATA_CUESHEET_INDEX_OFFSET_LEN, align 4, !tbaa !3
  %58 = load i32, ptr @FLAC__STREAM_METADATA_CUESHEET_INDEX_NUMBER_LEN, align 4, !tbaa !3
  %59 = add i32 %57, %58
  %60 = load i32, ptr @FLAC__STREAM_METADATA_CUESHEET_INDEX_RESERVED_LEN, align 4, !tbaa !3
  %61 = add i32 %59, %60
  %62 = mul i32 %56, %61
  %63 = udiv i32 %62, 8
  %64 = load ptr, ptr %2, align 8, !tbaa !7
  %65 = getelementptr inbounds nuw %struct.FLAC__StreamMetadata, ptr %64, i32 0, i32 2
  %66 = load i32, ptr %65, align 8, !tbaa !13
  %67 = add i32 %66, %63
  store i32 %67, ptr %65, align 8, !tbaa !13
  br label %68

68:                                               ; preds = %46
  %69 = load i32, ptr %3, align 4, !tbaa !3
  %70 = add i32 %69, 1
  store i32 %70, ptr %3, align 4, !tbaa !3
  br label %39, !llvm.loop !26

71:                                               ; preds = %39
  call void @llvm.lifetime.end.p0(i64 4, ptr %3) #12
  ret void
}

; Function Attrs: nounwind sspstrong uwtable
define internal i32 @copy_track_(ptr noundef %0, ptr noundef %1) #0 {
  %3 = alloca i32, align 4
  %4 = alloca ptr, align 8
  %5 = alloca ptr, align 8
  %6 = alloca ptr, align 8
  %7 = alloca i32, align 4
  store ptr %0, ptr %4, align 8, !tbaa !27
  store ptr %1, ptr %5, align 8, !tbaa !27
  %8 = load ptr, ptr %4, align 8, !tbaa !27
  %9 = load ptr, ptr %5, align 8, !tbaa !27
  %10 = call ptr @memcpy.inline(ptr noundef %8, ptr noundef %9, i64 noundef 32) #12
  %11 = load ptr, ptr %5, align 8, !tbaa !27
  %12 = getelementptr inbounds nuw %struct.FLAC__StreamMetadata_CueSheet_Track, ptr %11, i32 0, i32 5
  %13 = load ptr, ptr %12, align 8, !tbaa !33
  %14 = icmp eq ptr %13, null
  br i1 %14, label %15, label %16

15:                                               ; preds = %2
  br label %41

16:                                               ; preds = %2
  call void @llvm.lifetime.start.p0(i64 8, ptr %6) #12
  %17 = load ptr, ptr %5, align 8, !tbaa !27
  %18 = getelementptr inbounds nuw %struct.FLAC__StreamMetadata_CueSheet_Track, ptr %17, i32 0, i32 4
  %19 = load i8, ptr %18, align 1, !tbaa !23
  %20 = zext i8 %19 to i64
  %21 = call ptr @safe_malloc_mul_2op_p(i64 noundef %20, i64 noundef 16)
  store ptr %21, ptr %6, align 8, !tbaa !27
  %22 = icmp eq ptr %21, null
  br i1 %22, label %23, label %24

23:                                               ; preds = %16
  store i32 0, ptr %3, align 4
  store i32 1, ptr %7, align 4
  br label %38

24:                                               ; preds = %16
  %25 = load ptr, ptr %6, align 8, !tbaa !27
  %26 = load ptr, ptr %5, align 8, !tbaa !27
  %27 = getelementptr inbounds nuw %struct.FLAC__StreamMetadata_CueSheet_Track, ptr %26, i32 0, i32 5
  %28 = load ptr, ptr %27, align 8, !tbaa !33
  %29 = load ptr, ptr %5, align 8, !tbaa !27
  %30 = getelementptr inbounds nuw %struct.FLAC__StreamMetadata_CueSheet_Track, ptr %29, i32 0, i32 4
  %31 = load i8, ptr %30, align 1, !tbaa !23
  %32 = zext i8 %31 to i64
  %33 = mul i64 %32, 16
  %34 = call ptr @memcpy.inline(ptr noundef %25, ptr noundef %28, i64 noundef %33) #12
  %35 = load ptr, ptr %6, align 8, !tbaa !27
  %36 = load ptr, ptr %4, align 8, !tbaa !27
  %37 = getelementptr inbounds nuw %struct.FLAC__StreamMetadata_CueSheet_Track, ptr %36, i32 0, i32 5
  store ptr %35, ptr %37, align 8, !tbaa !33
  store i32 0, ptr %7, align 4
  br label %38

38:                                               ; preds = %24, %23
  call void @llvm.lifetime.end.p0(i64 8, ptr %6) #12
  %39 = load i32, ptr %7, align 4
  switch i32 %39, label %44 [
    i32 0, label %40
    i32 1, label %42
  ]

40:                                               ; preds = %38
  br label %41

41:                                               ; preds = %40, %15
  store i32 1, ptr %3, align 4
  br label %42

42:                                               ; preds = %41, %38
  %43 = load i32, ptr %3, align 4
  ret i32 %43

44:                                               ; preds = %38
  unreachable
}

; Function Attrs: nounwind sspstrong uwtable
define internal i32 @cuesheet_set_track_(ptr noundef %0, ptr noundef %1, ptr noundef %2, i32 noundef %3) #0 {
  %5 = alloca i32, align 4
  %6 = alloca ptr, align 8
  %7 = alloca ptr, align 8
  %8 = alloca ptr, align 8
  %9 = alloca i32, align 4
  %10 = alloca ptr, align 8
  %11 = alloca i32, align 4
  store ptr %0, ptr %6, align 8, !tbaa !7
  store ptr %1, ptr %7, align 8, !tbaa !27
  store ptr %2, ptr %8, align 8, !tbaa !27
  store i32 %3, ptr %9, align 4, !tbaa !3
  call void @llvm.lifetime.start.p0(i64 8, ptr %10) #12
  %12 = load ptr, ptr %7, align 8, !tbaa !27
  %13 = getelementptr inbounds nuw %struct.FLAC__StreamMetadata_CueSheet_Track, ptr %12, i32 0, i32 5
  %14 = load ptr, ptr %13, align 8, !tbaa !33
  store ptr %14, ptr %10, align 8, !tbaa !27
  %15 = load i32, ptr %9, align 4, !tbaa !3
  %16 = icmp ne i32 %15, 0
  br i1 %16, label %17, label %24

17:                                               ; preds = %4
  %18 = load ptr, ptr %7, align 8, !tbaa !27
  %19 = load ptr, ptr %8, align 8, !tbaa !27
  %20 = call i32 @copy_track_(ptr noundef %18, ptr noundef %19)
  %21 = icmp ne i32 %20, 0
  br i1 %21, label %23, label %22

22:                                               ; preds = %17
  store i32 0, ptr %5, align 4
  store i32 1, ptr %11, align 4
  br label %30

23:                                               ; preds = %17
  br label %27

24:                                               ; preds = %4
  %25 = load ptr, ptr %7, align 8, !tbaa !27
  %26 = load ptr, ptr %8, align 8, !tbaa !27
  call void @llvm.memcpy.p0.p0.i64(ptr align 8 %25, ptr align 8 %26, i64 32, i1 false), !tbaa.struct !105
  br label %27

27:                                               ; preds = %24, %23
  %28 = load ptr, ptr %10, align 8, !tbaa !27
  call void @free(ptr noundef %28) #12
  %29 = load ptr, ptr %6, align 8, !tbaa !7
  call void @cuesheet_calculate_length_(ptr noundef %29)
  store i32 1, ptr %5, align 4
  store i32 1, ptr %11, align 4
  br label %30

30:                                               ; preds = %27, %22
  call void @llvm.lifetime.end.p0(i64 8, ptr %10) #12
  %31 = load i32, ptr %5, align 4
  ret i32 %31
}

; Function Attrs: nounwind sspstrong uwtable
define i32 @FLAC__metadata_object_cuesheet_set_track(ptr noundef %0, i32 noundef %1, ptr noundef %2, i32 noundef %3) #0 {
  %5 = alloca ptr, align 8
  %6 = alloca i32, align 4
  %7 = alloca ptr, align 8
  %8 = alloca i32, align 4
  store ptr %0, ptr %5, align 8, !tbaa !7
  store i32 %1, ptr %6, align 4, !tbaa !3
  store ptr %2, ptr %7, align 8, !tbaa !27
  store i32 %3, ptr %8, align 4, !tbaa !3
  %9 = load ptr, ptr %5, align 8, !tbaa !7
  %10 = load ptr, ptr %5, align 8, !tbaa !7
  %11 = getelementptr inbounds nuw %struct.FLAC__StreamMetadata, ptr %10, i32 0, i32 3
  %12 = getelementptr inbounds nuw %struct.FLAC__StreamMetadata_CueSheet, ptr %11, i32 0, i32 4
  %13 = load ptr, ptr %12, align 8, !tbaa !16
  %14 = load i32, ptr %6, align 4, !tbaa !3
  %15 = zext i32 %14 to i64
  %16 = getelementptr inbounds nuw %struct.FLAC__StreamMetadata_CueSheet_Track, ptr %13, i64 %15
  %17 = load ptr, ptr %7, align 8, !tbaa !27
  %18 = load i32, ptr %8, align 4, !tbaa !3
  %19 = call i32 @cuesheet_set_track_(ptr noundef %9, ptr noundef %16, ptr noundef %17, i32 noundef %18)
  ret i32 %19
}