; Function Attrs: nounwind sspstrong uwtable
define range(i32 0, 2) i32 @FLAC__metadata_object_cuesheet_set_track(ptr noundef captures(none) %0, i32 noundef %1, ptr noundef readonly captures(none) %2, i32 noundef %3) local_unnamed_addr #0 {
  %5 = getelementptr inbounds nuw i8, ptr %0, i64 168
  %6 = load ptr, ptr %5, align 8, !tbaa !13
  %7 = zext i32 %1 to i64
  %8 = getelementptr inbounds nuw %struct.FLAC__StreamMetadata_CueSheet_Track, ptr %6, i64 %7
  %9 = getelementptr inbounds nuw i8, ptr %8, i64 24
  %10 = load ptr, ptr %9, align 8, !tbaa !21
  %.not.i = icmp eq i32 %3, 0
  tail call void @llvm.memcpy.p0.p0.i64(ptr noundef nonnull align 1 dereferenceable(32) %8, ptr noundef nonnull readonly align 1 dereferenceable(32) %2, i64 32, i1 false)
  br i1 %.not.i, label %copy_track_.exit.thread.i, label %11

11:                                               ; preds = %4
  %12 = getelementptr inbounds nuw i8, ptr %2, i64 24
  %13 = load ptr, ptr %12, align 8, !tbaa !21
  %14 = icmp eq ptr %13, null
  br i1 %14, label %copy_track_.exit.thread.i, label %15

15:                                               ; preds = %11
  %16 = getelementptr inbounds nuw i8, ptr %2, i64 23
  %17 = load i8, ptr %16, align 1, !tbaa !24
  %18 = zext i8 %17 to i64
  %19 = tail call ptr @safe_malloc_mul_2op_p(i64 noundef %18, i64 noundef 16) #31
  %20 = icmp eq ptr %19, null
  br i1 %20, label %cuesheet_set_track_.exit, label %.thread.i.i

.thread.i.i:                                      ; preds = %15
  %21 = load ptr, ptr %12, align 8, !tbaa !21
  %22 = load i8, ptr %16, align 1, !tbaa !24
  %23 = zext i8 %22 to i64
  %24 = shl nuw nsw i64 %23, 4
  tail call void @llvm.memcpy.p0.p0.i64(ptr noundef nonnull align 1 %19, ptr noundef nonnull align 1 %21, i64 noundef %24, i1 noundef false) #31
  store ptr %19, ptr %9, align 8, !tbaa !21
  br label %copy_track_.exit.thread.i

copy_track_.exit.thread.i:                        ; preds = %4, %.thread.i.i, %11
  tail call void @free(ptr noundef %10) #31
  %25 = load i32, ptr @FLAC__STREAM_METADATA_CUESHEET_MEDIA_CATALOG_NUMBER_LEN, align 4, !tbaa !9
  %26 = load i32, ptr @FLAC__STREAM_METADATA_CUESHEET_LEAD_IN_LEN, align 4, !tbaa !9
  %27 = add i32 %26, %25
  %28 = load i32, ptr @FLAC__STREAM_METADATA_CUESHEET_IS_CD_LEN, align 4, !tbaa !9
  %29 = add i32 %27, %28
  %30 = load i32, ptr @FLAC__STREAM_METADATA_CUESHEET_RESERVED_LEN, align 4, !tbaa !9
  %31 = add i32 %29, %30
  %32 = load i32, ptr @FLAC__STREAM_METADATA_CUESHEET_NUM_TRACKS_LEN, align 4, !tbaa !9
  %33 = add i32 %31, %32
  %34 = lshr i32 %33, 3
  %35 = getelementptr inbounds nuw i8, ptr %0, i64 8
  %36 = getelementptr inbounds nuw i8, ptr %0, i64 164
  %37 = load i32, ptr %36, align 4, !tbaa !13
  %38 = load i32, ptr @FLAC__STREAM_METADATA_CUESHEET_TRACK_OFFSET_LEN, align 4, !tbaa !9
  %39 = load i32, ptr @FLAC__STREAM_METADATA_CUESHEET_TRACK_NUMBER_LEN, align 4, !tbaa !9
  %40 = add i32 %39, %38
  %41 = load i32, ptr @FLAC__STREAM_METADATA_CUESHEET_TRACK_ISRC_LEN, align 4, !tbaa !9
  %42 = add i32 %40, %41
  %43 = load i32, ptr @FLAC__STREAM_METADATA_CUESHEET_TRACK_TYPE_LEN, align 4, !tbaa !9
  %44 = add i32 %42, %43
  %45 = load i32, ptr @FLAC__STREAM_METADATA_CUESHEET_TRACK_PRE_EMPHASIS_LEN, align 4, !tbaa !9
  %46 = add i32 %44, %45
  %47 = load i32, ptr @FLAC__STREAM_METADATA_CUESHEET_TRACK_RESERVED_LEN, align 4, !tbaa !9
  %48 = add i32 %46, %47
  %49 = load i32, ptr @FLAC__STREAM_METADATA_CUESHEET_TRACK_NUM_INDICES_LEN, align 4, !tbaa !9
  %50 = add i32 %48, %49
  %51 = mul i32 %50, %37
  %52 = lshr i32 %51, 3
  %53 = add nuw nsw i32 %52, %34
  store i32 %53, ptr %35, align 8, !tbaa !8
  %.not.i.i = icmp eq i32 %37, 0
  br i1 %.not.i.i, label %cuesheet_set_track_.exit, label %.lr.ph.i.i

.lr.ph.i.i:                                       ; preds = %copy_track_.exit.thread.i
  %54 = load ptr, ptr %5, align 8, !tbaa !13
  %55 = load i32, ptr @FLAC__STREAM_METADATA_CUESHEET_INDEX_OFFSET_LEN, align 4, !tbaa !9
  %56 = load i32, ptr @FLAC__STREAM_METADATA_CUESHEET_INDEX_NUMBER_LEN, align 4, !tbaa !9
  %57 = add i32 %56, %55
  %58 = load i32, ptr @FLAC__STREAM_METADATA_CUESHEET_INDEX_RESERVED_LEN, align 4, !tbaa !9
  %59 = add i32 %57, %58
  %wide.trip.count.i.i = zext i32 %37 to i64
  br label %60

60:                                               ; preds = %60, %.lr.ph.i.i
  %indvars.iv.i.i = phi i64 [ 0, %.lr.ph.i.i ], [ %indvars.iv.next.i.i, %60 ]
  %61 = phi i32 [ %53, %.lr.ph.i.i ], [ %67, %60 ]
  %62 = getelementptr inbounds nuw %struct.FLAC__StreamMetadata_CueSheet_Track, ptr %54, i64 %indvars.iv.i.i, i32 4
  %63 = load i8, ptr %62, align 1, !tbaa !24
  %64 = zext i8 %63 to i32
  %65 = mul i32 %59, %64
  %66 = lshr i32 %65, 3
  %67 = add i32 %66, %61
  %indvars.iv.next.i.i = add nuw nsw i64 %indvars.iv.i.i, 1
  %exitcond.not.i.i = icmp eq i64 %indvars.iv.next.i.i, %wide.trip.count.i.i
  br i1 %exitcond.not.i.i, label %._crit_edge.i.i, label %60, !llvm.loop !95

._crit_edge.i.i:                                  ; preds = %60
  store i32 %67, ptr %35, align 8, !tbaa !8
  br label %cuesheet_set_track_.exit

cuesheet_set_track_.exit:                         ; preds = %15, %copy_track_.exit.thread.i, %._crit_edge.i.i
  %.0.i = phi i32 [ 0, %15 ], [ 1, %copy_track_.exit.thread.i ], [ 1, %._crit_edge.i.i ]
  ret i32 %.0.i
}